target datalayout = "e-m:e-p270:32:32-p271:32:32-p272:64:64-i64:64-i128:128-f80:128-n8:16:32:64-S128"
target triple = "x86_64-pc-linux-gnu"

%struct.bufferevent_ssl = type { %struct.bufferevent_private, ptr, ptr, ptr, ptr, %struct.bio_data_counts, i64, [3 x i32], i8, i64 }
%struct.bufferevent_private = type { %struct.bufferevent, ptr, i8, i16, i16, i16, i32, i32, %struct.event_callback, i32, i32, ptr, i64, i64, ptr, %union.anon.7, ptr }
%struct.bufferevent = type { ptr, ptr, %struct.event, %struct.event, ptr, ptr, %struct.event_watermark, %struct.event_watermark, ptr, ptr, ptr, ptr, %struct.timeval, %struct.timeval, i16 }
%struct.event = type { %struct.event_callback, %union.anon.0, i32, i16, i16, ptr, %union.anon.2, %struct.timeval }
%union.anon.0 = type { %struct.anon.1 }
%struct.anon.1 = type { ptr, ptr }
%union.anon.2 = type { %struct.anon.3 }
%struct.anon.3 = type { %struct.anon.4, %struct.timeval }
%struct.anon.4 = type { ptr, ptr }
%struct.event_watermark = type { i64, i64 }
%struct.timeval = type { i64, i64 }
%struct.event_callback = type { %struct.anon, i16, i8, i8, %union.anon, ptr }
%struct.anon = type { ptr, ptr }
%union.anon = type { ptr }
%union.anon.7 = type { %struct.sockaddr_in6 }
%struct.sockaddr_in6 = type { i16, i16, i32, %struct.in6_addr, i32 }
%struct.in6_addr = type { %union.anon.8 }
%union.anon.8 = type { [4 x i32] }
%struct.bio_data_counts = type { i64, i64 }

@.str.1 = private unnamed_addr constant [38 x i8] c"BUG: Unexpected OpenSSL error code %d\00", align 1

; Function Attrs: nounwind uwtable
define internal void @conn_closed(ptr noundef %0, i32 noundef %1, i32 noundef %2, i32 noundef %3) #0 {
  %5 = alloca ptr, align 8
  %6 = alloca i32, align 4
  %7 = alloca i32, align 4
  %8 = alloca i32, align 4
  %9 = alloca i32, align 4
  %10 = alloca i32, align 4
  %11 = alloca i64, align 8
  store ptr %0, ptr %5, align 8
  store i32 %1, ptr %6, align 4
  store i32 %2, ptr %7, align 4
  store i32 %3, ptr %8, align 4
  call void @llvm.lifetime.start.p0(i64 4, ptr %9) #5
  store i32 32, ptr %9, align 4
  call void @llvm.lifetime.start.p0(i64 4, ptr %10) #5
  store i32 0, ptr %10, align 4
  call void @llvm.lifetime.start.p0(i64 8, ptr %11) #5
  %12 = load i32, ptr %7, align 4
  switch i32 %12, label %56 [
    i32 6, label %13
    i32 5, label %23
    i32 1, label %37
    i32 4, label %51
    i32 0, label %55
    i32 2, label %55
    i32 3, label %55
    i32 7, label %55
    i32 8, label %55
  ]

13:                                               ; preds = %4
  %14 = load ptr, ptr %5, align 8
  %15 = getelementptr inbounds nuw %struct.bufferevent_ssl, ptr %14, i32 0, i32 2
  %16 = load ptr, ptr %15, align 8
  %17 = call i32 @SSL_get_shutdown(ptr noundef %16)
  %18 = and i32 %17, 2
  %19 = icmp ne i32 %18, 0
  br i1 %19, label %20, label %21

20:                                               ; preds = %13
  store i32 16, ptr %9, align 4
  br label %22

21:                                               ; preds = %13
  store i32 1, ptr %10, align 4
  br label %22

22:                                               ; preds = %21, %20
  br label %58

23:                                               ; preds = %4
  %24 = load i32, ptr %8, align 4
  %25 = icmp eq i32 %24, 0
  br i1 %25, label %29, label %26

26:                                               ; preds = %23
  %27 = load i32, ptr %8, align 4
  %28 = icmp eq i32 %27, -1
  br i1 %28, label %29, label %33

29:                                               ; preds = %26, %23
  %30 = call i64 @ERR_peek_error()
  %31 = icmp eq i64 %30, 0
  br i1 %31, label %32, label %33

32:                                               ; preds = %29
  store i32 1, ptr %10, align 4
  br label %33

33:                                               ; preds = %32, %29, %26
  %34 = load ptr, ptr %5, align 8
  %35 = load i32, ptr %7, align 4
  %36 = sext i32 %35 to i64
  call void @bufferevent_ssl_put_error(ptr noundef %34, i64 noundef %36)
  br label %58

37:                                               ; preds = %4
  %38 = load i32, ptr %8, align 4
  %39 = icmp eq i32 %38, 0
  br i1 %39, label %40, label %47

40:                                               ; preds = %37
  %41 = load ptr, ptr %5, align 8
  %42 = getelementptr inbounds nuw %struct.bufferevent_ssl, ptr %41, i32 0, i32 2
  %43 = load ptr, ptr %42, align 8
  %44 = call i32 @SSL_is_init_finished(ptr noundef %43)
  %45 = icmp eq i32 %44, 0
  br i1 %45, label %46, label %47

46:                                               ; preds = %40
  store i32 1, ptr %10, align 4
  br label %47

47:                                               ; preds = %46, %40, %37
  %48 = load ptr, ptr %5, align 8
  %49 = load i32, ptr %7, align 4
  %50 = sext i32 %49 to i64
  call void @bufferevent_ssl_put_error(ptr noundef %48, i64 noundef %50)
  br label %58

51:                                               ; preds = %4
  %52 = load ptr, ptr %5, align 8
  %53 = load i32, ptr %7, align 4
  %54 = sext i32 %53 to i64
  call void @bufferevent_ssl_put_error(ptr noundef %52, i64 noundef %54)
  br label %58

55:                                               ; preds = %4, %4, %4, %4, %4
  br label %56

56:                                               ; preds = %4, %55
  %57 = load i32, ptr %7, align 4
  call void (ptr, ...) @event_warnx(ptr noundef @.str.1, i32 noundef %57)
  br label %58

58:                                               ; preds = %56, %51, %47, %33, %22
  br label %59

59:                                               ; preds = %62, %58
  %60 = call i64 @ERR_get_error()
  store i64 %60, ptr %11, align 8
  %61 = icmp ne i64 %60, 0
  br i1 %61, label %62, label %65

62:                                               ; preds = %59
  %63 = load ptr, ptr %5, align 8
  %64 = load i64, ptr %11, align 8
  call void @bufferevent_ssl_put_error(ptr noundef %63, i64 noundef %64)
  br label %59, !llvm.loop !4

65:                                               ; preds = %59
  %66 = load i32, ptr %10, align 4
  %67 = icmp ne i32 %66, 0
  br i1 %67, label %68, label %75

68:                                               ; preds = %65
  %69 = load ptr, ptr %5, align 8
  %70 = getelementptr inbounds nuw %struct.bufferevent_ssl, ptr %69, i32 0, i32 9
  %71 = load i64, ptr %70, align 8
  %72 = and i64 %71, 1
  %73 = icmp ne i64 %72, 0
  br i1 %73, label %74, label %75

74:                                               ; preds = %68
  store i32 16, ptr %9, align 4
  br label %75

75:                                               ; preds = %74, %68, %65
  %76 = load ptr, ptr %5, align 8
  call void @bufferevent_ssl_stop_reading(ptr noundef %76)
  %77 = load ptr, ptr %5, align 8
  call void @bufferevent_ssl_stop_writing(ptr noundef %77)
  %78 = load i32, ptr %6, align 4
  %79 = load i32, ptr %9, align 4
  %80 = or i32 %78, %79
  store i32 %80, ptr %9, align 4
  %81 = load ptr, ptr %5, align 8
  %82 = getelementptr inbounds nuw %struct.bufferevent_ssl, ptr %81, i32 0, i32 0
  %83 = getelementptr inbounds nuw %struct.bufferevent_private, ptr %82, i32 0, i32 0
  %84 = load i32, ptr %9, align 4
  %85 = trunc i32 %84 to i16
  call void @bufferevent_run_eventcb_(ptr noundef %83, i16 noundef signext %85, i32 noundef 0)
  call void @llvm.lifetime.end.p0(i64 8, ptr %11) #5
  call void @llvm.lifetime.end.p0(i64 4, ptr %10) #5
  call void @llvm.lifetime.end.p0(i64 4, ptr %9) #5
  ret void
}