; Function Attrs: nounwind uwtable
define internal void @conn_closed(ptr noundef %0, i32 noundef %1, i32 noundef %2, i32 noundef %3) #0 {
  switch i32 %2, label %25 [
    i32 6, label %5
    i32 5, label %10
    i32 1, label %16
    i32 4, label %24
  ]

5:                                                ; preds = %4
  %6 = getelementptr inbounds nuw i8, ptr %0, i64 528
  %7 = load ptr, ptr %6, align 8
  %8 = tail call i32 @SSL_get_shutdown(ptr noundef %7) #5
  %9 = and i32 %8, 2
  %.not = icmp eq i32 %9, 0
  %.lobit = lshr exact i32 %9, 1
  %. = xor i32 %.lobit, 1
  %.32 = select i1 %.not, i32 32, i32 16
  br label %26

10:                                               ; preds = %4
  %11 = add i32 %3, 1
  %or.cond = icmp ult i32 %11, 2
  br i1 %or.cond, label %12, label %15

12:                                               ; preds = %10
  %13 = tail call i64 @ERR_peek_error() #5
  %14 = icmp eq i64 %13, 0
  %spec.select = zext i1 %14 to i32
  br label %15

15:                                               ; preds = %12, %10
  %.124 = phi i32 [ 0, %10 ], [ %spec.select, %12 ]
  tail call void @bufferevent_ssl_put_error(ptr noundef %0, i64 noundef 5) #5
  br label %26

16:                                               ; preds = %4
  %17 = icmp eq i32 %3, 0
  br i1 %17, label %18, label %23

18:                                               ; preds = %16
  %19 = getelementptr inbounds nuw i8, ptr %0, i64 528
  %20 = load ptr, ptr %19, align 8
  %21 = tail call i32 @SSL_is_init_finished(ptr noundef %20) #5
  %22 = icmp eq i32 %21, 0
  %spec.select33 = zext i1 %22 to i32
  br label %23

23:                                               ; preds = %18, %16
  %.2 = phi i32 [ 0, %16 ], [ %spec.select33, %18 ]
  tail call void @bufferevent_ssl_put_error(ptr noundef %0, i64 noundef 1) #5
  br label %26

24:                                               ; preds = %4
  tail call void @bufferevent_ssl_put_error(ptr noundef %0, i64 noundef 4) #5
  br label %26

25:                                               ; preds = %4
  tail call void (ptr, ...) @event_warnx(ptr noundef nonnull @.str.1, i32 noundef %2) #5
  br label %26

26:                                               ; preds = %5, %25, %24, %23, %15
  %.023 = phi i32 [ 0, %25 ], [ 0, %24 ], [ %.2, %23 ], [ %.124, %15 ], [ %., %5 ]
  %.0 = phi i32 [ 32, %25 ], [ 32, %24 ], [ 32, %23 ], [ 32, %15 ], [ %.32, %5 ]
  %27 = tail call i64 @ERR_get_error() #5
  %.not2935 = icmp eq i64 %27, 0
  br i1 %.not2935, label %._crit_edge, label %.lr.ph

.lr.ph:                                           ; preds = %26, %.lr.ph
  %28 = phi i64 [ %29, %.lr.ph ], [ %27, %26 ]
  tail call void @bufferevent_ssl_put_error(ptr noundef %0, i64 noundef %28) #5
  %29 = tail call i64 @ERR_get_error() #5
  %.not29 = icmp eq i64 %29, 0
  br i1 %.not29, label %._crit_edge, label %.lr.ph, !llvm.loop !4

._crit_edge:                                      ; preds = %.lr.ph, %26
  %.not30 = icmp eq i32 %.023, 0
  br i1 %.not30, label %34, label %30

30:                                               ; preds = %._crit_edge
  %31 = getelementptr inbounds nuw i8, ptr %0, i64 592
  %32 = load i64, ptr %31, align 8
  %33 = and i64 %32, 1
  %.not31 = icmp eq i64 %33, 0
  %spec.select34 = select i1 %.not31, i32 %.0, i32 16
  br label %34

34:                                               ; preds = %30, %._crit_edge
  %.1 = phi i32 [ %.0, %._crit_edge ], [ %spec.select34, %30 ]
  tail call void @bufferevent_ssl_stop_reading(ptr noundef %0) #5
  tail call void @bufferevent_ssl_stop_writing(ptr noundef %0) #5
  %35 = or i32 %.1, %1
  %36 = trunc i32 %35 to i16
  tail call void @bufferevent_run_eventcb_(ptr noundef %0, i16 noundef signext %36, i32 noundef 0) #5
  ret void
}